ccopy_reg
_reconstructor
p0
(csklearn.pipeline
Pipeline
p1
c__builtin__
object
p2
Ntp3
Rp4
(dp5
S'_sklearn_version'
p6
S'0.20.4'
p7
sS'steps'
p8
(lp9
(S'scaler'
p10
g0
(csklearn.preprocessing.data
RobustScaler
p11
g2
Ntp12
Rp13
(dp14
S'with_centering'
p15
I01
sS'quantile_range'
p16
(F25.0
F75.0
tp17
sg6
g7
sS'copy'
p18
I01
sS'with_scaling'
p19
I01
sbtp20
a(S'pca'
p21
g0
(csklearn.decomposition.pca
PCA
p22
g2
Ntp23
Rp24
(dp25
S'iterated_power'
p26
S'auto'
p27
sS'n_components'
p28
I2
sS'random_state'
p29
Nsg6
g7
sS'whiten'
p30
I00
sS'tol'
p31
F0.0
sg18
I01
sS'svd_solver'
p32
g27
sbtp33
a(S'clf'
p34
g0
(csklearn.tree.tree
DecisionTreeClassifier
p35
g2
Ntp36
Rp37
(dp38
S'presort'
p39
I00
sS'splitter'
p40
S'random'
p41
sS'min_impurity_decrease'
p42
F0.0
sS'min_impurity_split'
p43
NsS'min_samples_leaf'
p44
I1
sS'max_features'
p45
Nsg29
I42
sS'criterion'
p46
S'gini'
p47
sS'min_weight_fraction_leaf'
p48
F0.0
sS'max_leaf_nodes'
p49
NsS'min_samples_split'
p50
I4
sg6
g7
sS'max_depth'
p51
NsS'class_weight'
p52
Nsbtp53
asS'memory'
p54
Nsb.